; Function Attrs: mustprogress uwtable
define dso_local noundef zeroext i1 @_ZNK9FactUnion5implyERK4Fact(ptr noundef nonnull align 8 dereferenceable(28) %0, ptr noundef nonnull align 8 dereferenceable(12) %1) unnamed_addr #3 align 2 {
  %3 = load ptr, ptr %0, align 8, !tbaa !4
  %4 = getelementptr inbounds nuw i8, ptr %3, i64 88
  %5 = load ptr, ptr %4, align 8
  %6 = tail call noundef zeroext i1 %5(ptr noundef nonnull align 8 dereferenceable(12) %0, ptr noundef nonnull align 8 dereferenceable(12) %1)
  br i1 %6, label %7, label %22

7:                                                ; preds = %2
  %8 = load ptr, ptr %0, align 8, !tbaa !4
  %9 = getelementptr inbounds nuw i8, ptr %8, i64 56
  %10 = load ptr, ptr %9, align 8
  %11 = tail call noundef zeroext i1 %10(ptr noundef nonnull align 8 dereferenceable(28) %0)
  br i1 %11, label %.thread, label %12

12:                                               ; preds = %7
  %13 = load ptr, ptr %1, align 8, !tbaa !4
  %14 = getelementptr inbounds nuw i8, ptr %13, i64 56
  %15 = load ptr, ptr %14, align 8
  %16 = tail call noundef zeroext i1 %15(ptr noundef nonnull align 8 dereferenceable(28) %1)
  br i1 %16, label %.thread, label %17

17:                                               ; preds = %12
  %18 = load ptr, ptr %0, align 8, !tbaa !4
  %19 = getelementptr inbounds nuw i8, ptr %18, i64 96
  %20 = load ptr, ptr %19, align 8
  %21 = tail call noundef zeroext i1 %20(ptr noundef nonnull align 8 dereferenceable(28) %0, ptr noundef nonnull align 8 dereferenceable(12) %1)
  br i1 %21, label %.thread, label %22

22:                                               ; preds = %17, %2
  br label %.thread

.thread:                                          ; preds = %12, %17, %7, %22
  %.06 = phi i1 [ true, %17 ], [ false, %22 ], [ true, %7 ], [ false, %12 ]
  ret i1 %.06
}